	.file	"main.c"
__SP_H__ = 0x3e
__SP_L__ = 0x3d
__SREG__ = 0x3f
__tmp_reg__ = 0
__zero_reg__ = 1
	.text
.Ltext0:
	.cfi_sections	.debug_frame
	.section	.rodata.str1.1,"aMS",@progbits,1
.LC0:
	.string	"benbenben"
	.text
.global	send_instructions
	.type	send_instructions, @function
send_instructions:
.LFB6:
	.file 1 "main.c"
	.loc 1 16 26 view -0
	.cfi_startproc
/* prologue: function */
/* frame size = 0 */
/* stack size = 0 */
.L__stack_usage = 0
	.loc 1 17 3 view .LVU1
	ldi r24,lo8(.LC0)
	ldi r25,hi8(.LC0)
	jmp uart_sendstring
.LVL0:
	.cfi_endproc
.LFE6:
	.size	send_instructions, .-send_instructions
	.section	.rodata.str1.1
.LC1:
	.string	"ben!ben!"
	.text
.global	write_stuff
	.type	write_stuff, @function
write_stuff:
.LFB7:
	.loc 1 20 20 view -0
	.cfi_startproc
	push r16
	.cfi_def_cfa_offset 3
	.cfi_offset 16, -2
	push r17
	.cfi_def_cfa_offset 4
	.cfi_offset 17, -3
	push r28
	.cfi_def_cfa_offset 5
	.cfi_offset 28, -4
	push r29
	.cfi_def_cfa_offset 6
	.cfi_offset 29, -5
/* prologue: function */
/* frame size = 0 */
/* stack size = 4 */
.L__stack_usage = 4
	.loc 1 21 3 view .LVU3
.LVL1:
	.loc 1 22 3 view .LVU4
.LBB2:
	.loc 1 22 8 view .LVU5
	.loc 1 22 8 is_stmt 0 view .LVU6
	ldi r16,lo8(.LC1)
	ldi r17,hi8(.LC1)
	.loc 1 22 12 view .LVU7
	ldi r29,0
	ldi r28,0
.LVL2:
.L3:
	.loc 1 23 5 is_stmt 1 discriminator 3 view .LVU8
	.loc 1 23 44 is_stmt 0 discriminator 3 view .LVU9
	movw r30,r16
	ld r22,Z+
	movw r16,r30
	.loc 1 23 5 discriminator 3 view .LVU10
	movw r24,r28
	call eeprom_update_byte
.LVL3:
	.loc 1 22 26 discriminator 3 view .LVU11
	adiw r28,1
.LVL4:
	.loc 1 22 3 discriminator 3 view .LVU12
	cpi r28,10
	cpc r29,__zero_reg__
	brne .L3
/* epilogue start */
.LBE2:
	.loc 1 24 1 view .LVU13
	pop r29
	pop r28
.LVL5:
	.loc 1 24 1 view .LVU14
	pop r17
	pop r16
	ret
	.cfi_endproc
.LFE7:
	.size	write_stuff, .-write_stuff
.global	read_stuff
	.type	read_stuff, @function
read_stuff:
.LFB8:
	.loc 1 26 19 is_stmt 1 view -0
	.cfi_startproc
	push r28
	.cfi_def_cfa_offset 3
	.cfi_offset 28, -2
	push r29
	.cfi_def_cfa_offset 4
	.cfi_offset 29, -3
/* prologue: function */
/* frame size = 0 */
/* stack size = 2 */
.L__stack_usage = 2
	.loc 1 27 3 view .LVU16
.LVL6:
	.loc 1 28 3 view .LVU17
.LBB3:
	.loc 1 28 8 view .LVU18
	.loc 1 28 12 is_stmt 0 view .LVU19
	ldi r29,0
	ldi r28,0
.LVL7:
.L6:
	.loc 1 29 5 is_stmt 1 discriminator 3 view .LVU20
	.loc 1 29 12 is_stmt 0 discriminator 3 view .LVU21
	movw r24,r28
	call eeprom_read_byte
.LVL8:
	.loc 1 30 5 is_stmt 1 discriminator 3 view .LVU22
	call uart_transmit
.LVL9:
	.loc 1 28 26 is_stmt 0 discriminator 3 view .LVU23
	adiw r28,1
.LVL10:
	.loc 1 28 3 discriminator 3 view .LVU24
	cpi r28,10
	cpc r29,__zero_reg__
	brne .L6
/* epilogue start */
.LBE3:
	.loc 1 32 1 view .LVU25
	pop r29
	pop r28
.LVL11:
	.loc 1 32 1 view .LVU26
	ret
	.cfi_endproc
.LFE8:
	.size	read_stuff, .-read_stuff
.global	test
	.type	test, @function
test:
.LFB9:
	.loc 1 34 13 is_stmt 1 view -0
	.cfi_startproc
/* prologue: function */
/* frame size = 0 */
/* stack size = 0 */
.L__stack_usage = 0
	.loc 1 35 3 view .LVU28
	ldi r24,lo8(49)
	jmp uart_transmit
.LVL12:
	.cfi_endproc
.LFE9:
	.size	test, .-test
	.section	.text.startup,"ax",@progbits
.global	main
	.type	main, @function
main:
.LFB10:
	.loc 1 38 12 view -0
	.cfi_startproc
/* prologue: function */
/* frame size = 0 */
/* stack size = 0 */
.L__stack_usage = 0
	.loc 1 39 3 view .LVU30
	ldi r22,0
	ldi r23,lo8(-62)
	ldi r24,lo8(1)
	ldi r25,0
	call uart_init
.LVL13:
.L13:
	.loc 1 41 3 view .LVU31
	.loc 1 42 3 view .LVU32
	.loc 1 43 5 view .LVU33
	.loc 1 43 9 is_stmt 0 view .LVU34
	call uart_receive
.LVL14:
	.loc 1 44 5 is_stmt 1 view .LVU35
	cpi r24,lo8(116)
	breq .L11
	cpi r24,lo8(119)
	breq .L12
	cpi r24,lo8(114)
	brne .L13
	.loc 1 46 9 view .LVU36
	call read_stuff
.LVL15:
	.loc 1 47 9 view .LVU37
	rjmp .L13
.LVL16:
.L12:
	.loc 1 49 9 view .LVU38
	call write_stuff
.LVL17:
	.loc 1 50 9 view .LVU39
	rjmp .L13
.LVL18:
.L11:
	.loc 1 52 9 view .LVU40
	call test
.LVL19:
	.loc 1 53 9 view .LVU41
	rjmp .L13
	.cfi_endproc
.LFE10:
	.size	main, .-main
	.text
.Letext0:
	.file 2 "uart.h"
	.file 3 "/usr/local/Cellar/avr-gcc/8.2.0/avr/include/avr/eeprom.h"
	.file 4 "/usr/local/Cellar/avr-gcc/8.2.0/avr/include/stdint.h"